target datalayout = "e-m:e-p270:32:32-p271:32:32-p272:64:64-i64:64-i128:128-f80:128-n8:16:32:64-S128"
target triple = "x86_64-pc-linux-gnu"

%struct.Node = type { i32 }
%struct.Plan = type { i32, i32, double, double, double, i32, i8, i8, i8, i32, ptr, ptr, ptr, ptr, ptr, ptr, ptr }
%struct.Agg = type { %struct.Plan, i32, i32, i32, ptr, ptr, ptr, i64, i64, ptr, ptr, ptr }

; Function Attrs: inlinehint nounwind uwtable
define internal ptr @newNode(i64 noundef %0, i32 noundef %1) #4 {
  %3 = alloca i64, align 8
  %4 = alloca i32, align 4
  %5 = alloca ptr, align 8
  store i64 %0, ptr %3, align 8
  store i32 %1, ptr %4, align 4
  call void @llvm.lifetime.start.p0(i64 8, ptr %5) #10
  %6 = load i64, ptr %3, align 8
  %7 = call ptr @palloc0(i64 noundef %6)
  store ptr %7, ptr %5, align 8
  %8 = load i32, ptr %4, align 4
  %9 = load ptr, ptr %5, align 8
  %10 = getelementptr inbounds nuw %struct.Node, ptr %9, i32 0, i32 0
  store i32 %8, ptr %10, align 4
  %11 = load ptr, ptr %5, align 8
  call void @llvm.lifetime.end.p0(i64 8, ptr %5) #10
  ret ptr %11
}

; Function Attrs: nounwind uwtable
define dso_local ptr @make_agg(ptr noundef %0, ptr noundef %1, i32 noundef %2, i32 noundef %3, i32 noundef %4, ptr noundef %5, ptr noundef %6, ptr noundef %7, ptr noundef %8, ptr noundef %9, double noundef %10, i64 noundef %11, ptr noundef %12) #0 {
  %14 = alloca ptr, align 8
  %15 = alloca ptr, align 8
  %16 = alloca i32, align 4
  %17 = alloca i32, align 4
  %18 = alloca i32, align 4
  %19 = alloca ptr, align 8
  %20 = alloca ptr, align 8
  %21 = alloca ptr, align 8
  %22 = alloca ptr, align 8
  %23 = alloca ptr, align 8
  %24 = alloca double, align 8
  %25 = alloca i64, align 8
  %26 = alloca ptr, align 8
  %27 = alloca ptr, align 8
  %28 = alloca ptr, align 8
  %29 = alloca i64, align 8
  store ptr %0, ptr %14, align 8
  store ptr %1, ptr %15, align 8
  store i32 %2, ptr %16, align 4
  store i32 %3, ptr %17, align 4
  store i32 %4, ptr %18, align 4
  store ptr %5, ptr %19, align 8
  store ptr %6, ptr %20, align 8
  store ptr %7, ptr %21, align 8
  store ptr %8, ptr %22, align 8
  store ptr %9, ptr %23, align 8
  store double %10, ptr %24, align 8
  store i64 %11, ptr %25, align 8
  store ptr %12, ptr %26, align 8
  call void @llvm.lifetime.start.p0(i64 8, ptr %27) #10
  %30 = call ptr @newNode(i64 noundef 184, i32 noundef 364)
  store ptr %30, ptr %27, align 8
  call void @llvm.lifetime.start.p0(i64 8, ptr %28) #10
  %31 = load ptr, ptr %27, align 8
  %32 = getelementptr inbounds nuw %struct.Agg, ptr %31, i32 0, i32 0
  store ptr %32, ptr %28, align 8
  call void @llvm.lifetime.start.p0(i64 8, ptr %29) #10
  %33 = load double, ptr %24, align 8
  %34 = call i64 @clamp_cardinality_to_long(double noundef %33)
  store i64 %34, ptr %29, align 8
  %35 = load i32, ptr %16, align 4
  %36 = load ptr, ptr %27, align 8
  %37 = getelementptr inbounds nuw %struct.Agg, ptr %36, i32 0, i32 1
  store i32 %35, ptr %37, align 8
  %38 = load i32, ptr %17, align 4
  %39 = load ptr, ptr %27, align 8
  %40 = getelementptr inbounds nuw %struct.Agg, ptr %39, i32 0, i32 2
  store i32 %38, ptr %40, align 4
  %41 = load i32, ptr %18, align 4
  %42 = load ptr, ptr %27, align 8
  %43 = getelementptr inbounds nuw %struct.Agg, ptr %42, i32 0, i32 3
  store i32 %41, ptr %43, align 8
  %44 = load ptr, ptr %19, align 8
  %45 = load ptr, ptr %27, align 8
  %46 = getelementptr inbounds nuw %struct.Agg, ptr %45, i32 0, i32 4
  store ptr %44, ptr %46, align 8
  %47 = load ptr, ptr %20, align 8
  %48 = load ptr, ptr %27, align 8
  %49 = getelementptr inbounds nuw %struct.Agg, ptr %48, i32 0, i32 5
  store ptr %47, ptr %49, align 8
  %50 = load ptr, ptr %21, align 8
  %51 = load ptr, ptr %27, align 8
  %52 = getelementptr inbounds nuw %struct.Agg, ptr %51, i32 0, i32 6
  store ptr %50, ptr %52, align 8
  %53 = load i64, ptr %29, align 8
  %54 = load ptr, ptr %27, align 8
  %55 = getelementptr inbounds nuw %struct.Agg, ptr %54, i32 0, i32 7
  store i64 %53, ptr %55, align 8
  %56 = load i64, ptr %25, align 8
  %57 = load ptr, ptr %27, align 8
  %58 = getelementptr inbounds nuw %struct.Agg, ptr %57, i32 0, i32 8
  store i64 %56, ptr %58, align 8
  %59 = load ptr, ptr %27, align 8
  %60 = getelementptr inbounds nuw %struct.Agg, ptr %59, i32 0, i32 9
  store ptr null, ptr %60, align 8
  %61 = load ptr, ptr %22, align 8
  %62 = load ptr, ptr %27, align 8
  %63 = getelementptr inbounds nuw %struct.Agg, ptr %62, i32 0, i32 10
  store ptr %61, ptr %63, align 8
  %64 = load ptr, ptr %23, align 8
  %65 = load ptr, ptr %27, align 8
  %66 = getelementptr inbounds nuw %struct.Agg, ptr %65, i32 0, i32 11
  store ptr %64, ptr %66, align 8
  %67 = load ptr, ptr %15, align 8
  %68 = load ptr, ptr %28, align 8
  %69 = getelementptr inbounds nuw %struct.Plan, ptr %68, i32 0, i32 11
  store ptr %67, ptr %69, align 8
  %70 = load ptr, ptr %14, align 8
  %71 = load ptr, ptr %28, align 8
  %72 = getelementptr inbounds nuw %struct.Plan, ptr %71, i32 0, i32 10
  store ptr %70, ptr %72, align 8
  %73 = load ptr, ptr %26, align 8
  %74 = load ptr, ptr %28, align 8
  %75 = getelementptr inbounds nuw %struct.Plan, ptr %74, i32 0, i32 12
  store ptr %73, ptr %75, align 8
  %76 = load ptr, ptr %28, align 8
  %77 = getelementptr inbounds nuw %struct.Plan, ptr %76, i32 0, i32 13
  store ptr null, ptr %77, align 8
  %78 = load ptr, ptr %27, align 8
  call void @llvm.lifetime.end.p0(i64 8, ptr %29) #10
  call void @llvm.lifetime.end.p0(i64 8, ptr %28) #10
  call void @llvm.lifetime.end.p0(i64 8, ptr %27) #10
  ret ptr %78
}