; Function Attrs: nounwind uwtable
define dso_local noundef ptr @make_agg(ptr noundef %0, ptr noundef %1, i32 noundef %2, i32 noundef %3, i32 noundef %4, ptr noundef %5, ptr noundef %6, ptr noundef %7, ptr noundef %8, ptr noundef %9, double noundef %10, i64 noundef %11, ptr noundef %12) local_unnamed_addr #0 {
  %14 = tail call noundef ptr @palloc0(i64 noundef 184) #12
  store i32 364, ptr %14, align 4
  %15 = tail call i64 @clamp_cardinality_to_long(double noundef %10) #12
  %16 = getelementptr inbounds nuw i8, ptr %14, i64 104
  store i32 %2, ptr %16, align 8
  %17 = getelementptr inbounds nuw i8, ptr %14, i64 108
  store i32 %3, ptr %17, align 4
  %18 = getelementptr inbounds nuw i8, ptr %14, i64 112
  store i32 %4, ptr %18, align 8
  %19 = getelementptr inbounds nuw i8, ptr %14, i64 120
  store ptr %5, ptr %19, align 8
  %20 = getelementptr inbounds nuw i8, ptr %14, i64 128
  store ptr %6, ptr %20, align 8
  %21 = getelementptr inbounds nuw i8, ptr %14, i64 136
  store ptr %7, ptr %21, align 8
  %22 = getelementptr inbounds nuw i8, ptr %14, i64 144
  store i64 %15, ptr %22, align 8
  %23 = getelementptr inbounds nuw i8, ptr %14, i64 152
  store i64 %11, ptr %23, align 8
  %24 = getelementptr inbounds nuw i8, ptr %14, i64 160
  store ptr null, ptr %24, align 8
  %25 = getelementptr inbounds nuw i8, ptr %14, i64 168
  store ptr %8, ptr %25, align 8
  %26 = getelementptr inbounds nuw i8, ptr %14, i64 176
  store ptr %9, ptr %26, align 8
  %27 = getelementptr inbounds nuw i8, ptr %14, i64 56
  store ptr %1, ptr %27, align 8
  %28 = getelementptr inbounds nuw i8, ptr %14, i64 48
  store ptr %0, ptr %28, align 8
  %29 = getelementptr inbounds nuw i8, ptr %14, i64 64
  store ptr %12, ptr %29, align 8
  %30 = getelementptr inbounds nuw i8, ptr %14, i64 72
  store ptr null, ptr %30, align 8
  ret ptr %14
}